target datalayout = "e-m:e-p270:32:32-p271:32:32-p272:64:64-i64:64-i128:128-f80:128-n8:16:32:64-S128"
target triple = "x86_64-pc-linux-gnu"

%struct.Fraig_ManStruct_t_ = type { ptr, ptr, ptr, ptr, ptr, ptr, ptr, ptr, ptr, i32, i32, i32, i32, i32, i32, i32, i32, i32, i32, i32, i32, i64, i32, i32, i32, i32, i32, ptr, ptr, ptr, ptr, ptr, i32, ptr, ptr, ptr, ptr, ptr, ptr, i32, ptr, ptr, ptr, ptr, i32, i32, i32, i32, i32, i32, i32, i32, i32, i32, i32, i32, i32, i32, i32, i32, i32, i32, i32, i64, i64, i64, i64, i64, i64, i64, i64, i64, i64, i64, i64 }
%struct.Fraig_NodeStruct_t_ = type { i32, i32, i32, i32, i32, i32, i32, ptr, ptr, ptr, ptr, ptr, ptr, ptr, ptr, i32, i32, ptr, ptr, ptr, ptr, ptr, ptr, ptr }

; Function Attrs: nounwind uwtable
define internal void @Fraig_Dfs_rec(ptr noundef %0, ptr noundef %1, ptr noundef %2, i32 noundef %3) #0 {
  %5 = alloca ptr, align 8
  %6 = alloca ptr, align 8
  %7 = alloca ptr, align 8
  %8 = alloca i32, align 4
  store ptr %0, ptr %5, align 8
  store ptr %1, ptr %6, align 8
  store ptr %2, ptr %7, align 8
  store i32 %3, ptr %8, align 4
  %9 = load ptr, ptr %6, align 8
  %10 = getelementptr inbounds %struct.Fraig_NodeStruct_t_, ptr %9, i32 0, i32 4
  %11 = load i32, ptr %10, align 8
  %12 = load ptr, ptr %5, align 8
  %13 = getelementptr inbounds %struct.Fraig_ManStruct_t_, ptr %12, i32 0, i32 22
  %14 = load i32, ptr %13, align 8
  %15 = icmp eq i32 %11, %14
  br i1 %15, label %16, label %17

16:                                               ; preds = %4
  br label %63

17:                                               ; preds = %4
  %18 = load ptr, ptr %5, align 8
  %19 = getelementptr inbounds %struct.Fraig_ManStruct_t_, ptr %18, i32 0, i32 22
  %20 = load i32, ptr %19, align 8
  %21 = load ptr, ptr %6, align 8
  %22 = getelementptr inbounds %struct.Fraig_NodeStruct_t_, ptr %21, i32 0, i32 4
  store i32 %20, ptr %22, align 8
  %23 = load ptr, ptr %6, align 8
  %24 = call i32 @Fraig_NodeIsAnd(ptr noundef %23)
  %25 = icmp ne i32 %24, 0
  br i1 %25, label %26, label %45

26:                                               ; preds = %17
  %27 = load ptr, ptr %5, align 8
  %28 = load ptr, ptr %6, align 8
  %29 = getelementptr inbounds %struct.Fraig_NodeStruct_t_, ptr %28, i32 0, i32 7
  %30 = load ptr, ptr %29, align 8
  %31 = ptrtoint ptr %30 to i64
  %32 = and i64 %31, -2
  %33 = inttoptr i64 %32 to ptr
  %34 = load ptr, ptr %7, align 8
  %35 = load i32, ptr %8, align 4
  call void @Fraig_Dfs_rec(ptr noundef %27, ptr noundef %33, ptr noundef %34, i32 noundef %35)
  %36 = load ptr, ptr %5, align 8
  %37 = load ptr, ptr %6, align 8
  %38 = getelementptr inbounds %struct.Fraig_NodeStruct_t_, ptr %37, i32 0, i32 8
  %39 = load ptr, ptr %38, align 8
  %40 = ptrtoint ptr %39 to i64
  %41 = and i64 %40, -2
  %42 = inttoptr i64 %41 to ptr
  %43 = load ptr, ptr %7, align 8
  %44 = load i32, ptr %8, align 4
  call void @Fraig_Dfs_rec(ptr noundef %36, ptr noundef %42, ptr noundef %43, i32 noundef %44)
  br label %45

45:                                               ; preds = %26, %17
  %46 = load i32, ptr %8, align 4
  %47 = icmp ne i32 %46, 0
  br i1 %47, label %48, label %60

48:                                               ; preds = %45
  %49 = load ptr, ptr %6, align 8
  %50 = getelementptr inbounds %struct.Fraig_NodeStruct_t_, ptr %49, i32 0, i32 13
  %51 = load ptr, ptr %50, align 8
  %52 = icmp ne ptr %51, null
  br i1 %52, label %53, label %60

53:                                               ; preds = %48
  %54 = load ptr, ptr %5, align 8
  %55 = load ptr, ptr %6, align 8
  %56 = getelementptr inbounds %struct.Fraig_NodeStruct_t_, ptr %55, i32 0, i32 13
  %57 = load ptr, ptr %56, align 8
  %58 = load ptr, ptr %7, align 8
  %59 = load i32, ptr %8, align 4
  call void @Fraig_Dfs_rec(ptr noundef %54, ptr noundef %57, ptr noundef %58, i32 noundef %59)
  br label %60

60:                                               ; preds = %53, %48, %45
  %61 = load ptr, ptr %7, align 8
  %62 = load ptr, ptr %6, align 8
  call void @Fraig_NodeVecPush(ptr noundef %61, ptr noundef %62)
  br label %63

63:                                               ; preds = %60, %16
  ret void
}