; Function Attrs: nounwind uwtable
define internal fastcc void @Fraig_Dfs_rec(i32 %.128.val, ptr noundef %0, ptr noundef %1, i32 noundef %2) unnamed_addr #0 {
  %4 = getelementptr inbounds nuw i8, ptr %0, i64 16
  %5 = load i32, ptr %4, align 8
  %6 = icmp eq i32 %5, %.128.val
  br i1 %6, label %26, label %7

7:                                                ; preds = %3
  store i32 %.128.val, ptr %4, align 8
  %8 = tail call i32 @Fraig_NodeIsAnd(ptr noundef nonnull %0) #15
  %.not = icmp eq i32 %8, 0
  br i1 %.not, label %20, label %9

9:                                                ; preds = %7
  %10 = getelementptr inbounds nuw i8, ptr %0, i64 32
  %11 = load ptr, ptr %10, align 8
  %12 = ptrtoint ptr %11 to i64
  %13 = and i64 %12, -2
  %14 = inttoptr i64 %13 to ptr
  tail call fastcc void @Fraig_Dfs_rec(i32 %.128.val, ptr noundef %14, ptr noundef %1, i32 noundef %2)
  %15 = getelementptr inbounds nuw i8, ptr %0, i64 40
  %16 = load ptr, ptr %15, align 8
  %17 = ptrtoint ptr %16 to i64
  %18 = and i64 %17, -2
  %19 = inttoptr i64 %18 to ptr
  tail call fastcc void @Fraig_Dfs_rec(i32 %.128.val, ptr noundef %19, ptr noundef %1, i32 noundef %2)
  br label %20

20:                                               ; preds = %9, %7
  %.not22 = icmp eq i32 %2, 0
  br i1 %.not22, label %25, label %21

21:                                               ; preds = %20
  %22 = getelementptr inbounds nuw i8, ptr %0, i64 80
  %23 = load ptr, ptr %22, align 8
  %.not23 = icmp eq ptr %23, null
  br i1 %.not23, label %25, label %24

24:                                               ; preds = %21
  tail call fastcc void @Fraig_Dfs_rec(i32 %.128.val, ptr noundef nonnull %23, ptr noundef %1, i32 noundef %2)
  br label %25

25:                                               ; preds = %24, %21, %20
  tail call void @Fraig_NodeVecPush(ptr noundef %1, ptr noundef nonnull %0) #15
  br label %26

26:                                               ; preds = %3, %25
  ret void
}